Certificate:
    Data:
        Version: 3 (0x2)
        Serial Number: 268435667 (0x100000d3)
        Signature Algorithm: sha256WithRSAEncryption
        Issuer: C=DE, ST=Hessen, O=privacyidea, CN=CA001
        Validity
            Not Before: Jan 17 10:42:22 2020 GMT
            Not After : Jan 16 10:42:22 2021 GMT
        Subject: C=DE, ST=Hessen, O=privacyidea, CN=usercert
        Subject Public Key Info:
            Public Key Algorithm: rsaEncryption
                RSA Public-Key: (2048 bit)
                Modulus:
                    00:dc:2f:d1:5f:29:97:d4:7c:c3:53:c8:30:bd:4b:
                    67:70:2c:24:6b:b8:5e:eb:21:7a:48:12:56:7c:81:
                    5c:48:75:b6:68:eb:f6:f2:98:4e:50:51:d1:7f:6c:
                    73:f3:0a:a7:ae:be:48:5e:e5:d6:e1:d9:2a:7c:32:
                    6e:4e:fd:08:f6:5a:54:49:23:73:c3:b9:07:18:d1:
                    ef:b3:ac:f8:8a:dc:94:96:a4:90:3a:8e:74:df:e6:
                    0d:37:1b:bd:5b:b7:25:1a:56:39:da:6f:91:aa:5e:
                    1c:74:f3:f9:7c:14:01:83:12:65:76:c7:bb:fe:36:
                    5b:95:e9:72:65:83:ed:3e:98:30:71:fa:87:dd:a3:
                    36:5a:30:03:2e:26:e0:61:d1:bf:02:3f:b6:06:1f:
                    4a:89:28:1c:5c:a2:ff:4e:be:94:e6:8c:e0:da:82:
                    f1:9d:29:32:48:30:73:b4:04:f6:42:1e:be:f7:e2:
                    32:32:27:3c:9d:89:2f:70:3e:85:9a:6f:5c:c5:09:
                    c0:8c:32:2f:72:22:c9:d2:95:1f:b6:ac:72:60:72:
                    b7:82:4d:6b:ce:5b:e3:00:d0:d2:2f:58:c6:e0:10:
                    e5:51:ca:4d:3b:2e:e6:7e:ab:84:d6:56:f1:93:35:
                    a0:93:64:26:81:75:2f:91:b5:16:06:38:0b:db:cc:
                    2d:07
                Exponent: 65537 (0x10001)
        X509v3 extensions:
            X509v3 Key Usage: 
                Digital Signature, Key Encipherment
            X509v3 Basic Constraints: 
                CA:FALSE
            Netscape Cert Type: 
                SSL Server
            Netscape Comment: 
                OpenSSL Generated Server Certificate
            X509v3 Subject Key Identifier: 
                FC:14:D1:F0:4B:8D:00:90:F2:F5:B8:71:9E:4E:97:C3:92:54:AD:0B
            X509v3 Authority Key Identifier: 
                keyid:F4:A7:C0:CC:91:46:AF:64:F3:91:F2:27:F8:C8:B2:6F:8A:87:32:73
                DirName:/C=DE/ST=Hessen/O=privacyidea/CN=CA001
                serial:FB:C8:EB:AC:83:CD:12:07

            X509v3 Extended Key Usage: 
                TLS Web Server Authentication
    Signature Algorithm: sha256WithRSAEncryption
         8e:a5:26:76:42:22:50:42:b0:07:ba:ba:c3:5c:4f:4c:ee:b9:
         d5:15:2b:57:5b:df:f0:c2:9f:c7:32:70:89:02:9e:c1:31:ae:
         9a:0e:1c:c9:7b:08:c5:10:85:7d:d3:67:5c:38:ac:0a:cd:c8:
         5c:b5:f9:ab:15:0a:81:56:b5:e2:7f:36:e3:76:e4:dc:32:a8:
         b9:8b:01:31:19:ea:2e:49:0a:a0:d3:5a:28:b9:0c:62:48:b1:
         0e:2b:bf:7c:73:4c:db:6b:42:99:6b:33:b7:79:96:8f:c0:99:
         cf:7e:ff:ef:6d:f1:09:a7:1a:11:45:24:ba:b1:e6:59:87:80:
         35:00:11:f6:50:d6:19:95:d8:d3:fd:6d:35:a3:cd:cd:64:da:
         2c:3e:25:5a:37:9f:8d:38:c7:64:15:ad:a6:0d:06:9e:43:28:
         63:bf:06:99:2b:e3:9d:60:c7:71:db:34:57:93:3f:56:f4:5e:
         21:18:c8:11:69:c0:f4:c5:fc:5d:6e:aa:50:f1:f5:d2:d4:f3:
         c6:45:bf:34:e5:8e:42:87:5d:6a:c0:69:f7:c3:f1:44:3e:18:
         1f:b2:4b:4f:07:c9:0e:69:a3:03:45:f0:fb:22:99:6e:14:e7:
         92:82:f9:73:77:ee:b7:73:aa:fd:62:a4:e3:bc:7f:68:03:30:
         c3:57:87:b5
-----BEGIN CERTIFICATE-----
MIIEGTCCAwGgAwIBAgIEEAAA0zANBgkqhkiG9w0BAQsFADBEMQswCQYDVQQGEwJE
RTEPMA0GA1UECAwGSGVzc2VuMRQwEgYDVQQKDAtwcml2YWN5aWRlYTEOMAwGA1UE
AwwFQ0EwMDEwHhcNMjAwMTE3MTA0MjIyWhcNMjEwMTE2MTA0MjIyWjBHMQswCQYD
VQQGEwJERTEPMA0GA1UECAwGSGVzc2VuMRQwEgYDVQQKDAtwcml2YWN5aWRlYTER
MA8GA1UEAwwIdXNlcmNlcnQwggEiMA0GCSqGSIb3DQEBAQUAA4IBDwAwggEKAoIB
AQDcL9FfKZfUfMNTyDC9S2dwLCRruF7rIXpIElZ8gVxIdbZo6/bymE5QUdF/bHPz
Cqeuvkhe5dbh2Sp8Mm5O/Qj2WlRJI3PDuQcY0e+zrPiK3JSWpJA6jnTf5g03G71b
tyUaVjnab5GqXhx08/l8FAGDEmV2x7v+NluV6XJlg+0+mDBx+ofdozZaMAMuJuBh
0b8CP7YGH0qJKBxcov9OvpTmjODagvGdKTJIMHO0BPZCHr734jIyJzydiS9wPoWa
b1zFCcCMMi9yIsnSlR+2rHJgcreCTWvOW+MA0NIvWMbgEOVRyk07LuZ+q4TWVvGT
NaCTZCaBdS+RtRYGOAvbzC0HAgMBAAGjggEOMIIBCjALBgNVHQ8EBAMCBaAwCQYD
VR0TBAIwADARBglghkgBhvhCAQEEBAMCBkAwMwYJYIZIAYb4QgENBCYWJE9wZW5T
U0wgR2VuZXJhdGVkIFNlcnZlciBDZXJ0aWZpY2F0ZTAdBgNVHQ4EFgQU/BTR8EuN
AJDy9bhxnk6Xw5JUrQswdAYDVR0jBG0wa4AU9KfAzJFGr2TzkfIn+Miyb4qHMnOh
SKRGMEQxCzAJBgNVBAYTAkRFMQ8wDQYDVQQIDAZIZXNzZW4xFDASBgNVBAoMC3By
aXZhY3lpZGVhMQ4wDAYDVQQDDAVDQTAwMYIJAPvI66yDzRIHMBMGA1UdJQQMMAoG
CCsGAQUFBwMBMA0GCSqGSIb3DQEBCwUAA4IBAQCOpSZ2QiJQQrAHurrDXE9M7rnV
FStXW9/wwp/HMnCJAp7BMa6aDhzJewjFEIV902dcOKwKzchctfmrFQqBVrXifzbj
duTcMqi5iwExGeouSQqg01oouQxiSLEOK798c0zba0KZazO3eZaPwJnPfv/vbfEJ
pxoRRSS6seZZh4A1ABH2UNYZldjT/W01o83NZNosPiVaN5+NOMdkFa2mDQaeQyhj
vwaZK+OdYMdx2zRXkz9W9F4hGMgRacD0xfxdbqpQ8fXS1PPGRb805Y5Ch11qwGn3
w/FEPhgfsktPB8kOaaMDRfD7IpluFOeSgvlzd+63c6r9YqTjvH9oAzDDV4e1
-----END CERTIFICATE-----
