Certificate:
    Data:
        Version: 3 (0x2)
        Serial Number: 268435672 (0x100000d8)
        Signature Algorithm: sha256WithRSAEncryption
        Issuer: C=DE, ST=Hessen, O=privacyidea, CN=CA001
        Validity
            Not Before: Jan 17 10:45:50 2020 GMT
            Not After : Jan 16 10:45:50 2021 GMT
        Subject: CN=selfservice,CN=user,O=realm1/emailAddress=meine
        Subject Public Key Info:
            Public Key Algorithm: rsaEncryption
                RSA Public-Key: (2048 bit)
                Modulus:
                    00:cf:3c:d4:33:0e:12:c4:e6:da:cd:b6:56:a1:1c:
                    26:bb:26:1c:8a:4a:73:a8:58:8a:b6:1e:b3:8b:99:
                    d2:1d:07:c2:92:89:79:c0:69:d8:c8:df:28:61:98:
                    1e:b3:fe:ae:2b:bd:78:a9:f7:6e:47:dc:a3:a0:16:
                    8c:85:02:c1:4e:92:fd:72:6e:f0:c8:03:29:9b:b8:
                    00:6e:c0:83:95:c8:34:20:36:9c:b3:e5:e4:e6:76:
                    73:a3:1a:ad:40:96:e0:53:54:00:ec:76:79:9a:c6:
                    0d:7e:b6:bd:29:ec:83:f3:cb:89:a4:cb:6c:00:ba:
                    0c:c5:78:0f:ff:69:b8:94:f4:04:70:43:3f:d8:9e:
                    d7:a7:fb:5d:ce:75:8e:da:e7:c4:07:b1:9d:de:6f:
                    88:4b:b6:4d:9a:cf:f9:bc:fa:9f:cd:32:6d:f6:3a:
                    0b:0d:23:42:78:ec:97:42:bf:0e:4d:60:56:e1:d3:
                    02:f2:19:cb:84:57:90:e5:70:a1:a2:83:35:86:e2:
                    da:86:9f:f9:8a:c4:79:b3:52:28:da:cb:bb:34:ca:
                    d3:da:91:4a:cf:8d:76:a2:b2:6b:9b:f9:96:fd:09:
                    2a:da:11:23:4d:f0:cb:d6:b2:b1:0e:12:6c:9a:19:
                    65:98:87:ca:e4:ee:24:ce:44:ac:90:8f:9d:1b:c5:
                    2a:9d
                Exponent: 65537 (0x10001)
        X509v3 extensions:
            X509v3 Key Usage: 
                Digital Signature, Key Encipherment
            X509v3 Basic Constraints: 
                CA:FALSE
            Netscape Cert Type: 
                SSL Server
            Netscape Comment: 
                OpenSSL Generated Server Certificate
            X509v3 Subject Key Identifier: 
                4D:07:90:AD:FF:1D:0D:E7:1A:DD:D6:2E:FA:BA:34:CB:AA:1F:24:C6
            X509v3 Authority Key Identifier: 
                keyid:F4:A7:C0:CC:91:46:AF:64:F3:91:F2:27:F8:C8:B2:6F:8A:87:32:73
                DirName:/C=DE/ST=Hessen/O=privacyidea/CN=CA001
                serial:FB:C8:EB:AC:83:CD:12:07

            X509v3 Extended Key Usage: 
                TLS Web Server Authentication
    Signature Algorithm: sha256WithRSAEncryption
         19:7a:40:6e:63:af:07:8c:03:07:4f:ea:5d:ef:24:4f:d6:f4:
         38:71:8e:01:c3:94:d5:6f:c7:ab:f6:cb:da:a5:db:b2:de:6a:
         c8:08:3f:49:46:ff:66:ec:de:41:77:c3:dd:45:ff:b1:ff:82:
         ca:05:80:e8:75:3b:3b:c7:52:1d:75:4f:cc:20:24:a4:f1:45:
         3a:12:cf:81:8b:f6:51:cb:8c:1e:d0:17:ce:e2:bc:62:bb:ca:
         41:68:59:46:82:85:96:d4:8f:4a:93:0a:ee:52:10:0c:6d:29:
         3e:a3:92:ef:bf:29:d1:1d:12:bd:f7:94:49:60:c7:fc:ea:ff:
         31:2c:21:3b:03:e3:0e:41:ea:c2:9a:e9:4a:bb:35:4a:ae:b6:
         f5:f5:03:a8:f8:97:a5:ea:9a:38:98:d2:71:1b:22:b1:ed:86:
         8c:59:89:4d:26:8e:ed:06:40:96:77:14:99:3e:4d:2f:45:7e:
         4f:e7:97:51:cc:3c:8b:d1:e0:ff:39:33:26:62:2b:95:db:7c:
         06:c8:d9:15:2e:90:d2:a8:d1:a3:6c:d7:4c:0b:5c:3f:71:6c:
         12:c4:f6:4f:50:ef:32:06:9f:13:42:a9:36:1e:8c:84:c9:1f:
         6d:cc:2b:0d:88:5a:7d:d4:41:48:01:bd:a4:05:13:95:ba:4b:
         7e:c8:d1:b0
-----BEGIN CERTIFICATE-----
MIIEDzCCAvegAwIBAgIEEAAA2DANBgkqhkiG9w0BAQsFADBEMQswCQYDVQQGEwJE
RTEPMA0GA1UECAwGSGVzc2VuMRQwEgYDVQQKDAtwcml2YWN5aWRlYTEOMAwGA1UE
AwwFQ0EwMDEwHhcNMjAwMTE3MTA0NTUwWhcNMjEwMTE2MTA0NTUwWjA9MSUwIwYD
VQQDDBxzZWxmc2VydmljZSxDTj11c2VyLE89cmVhbG0xMRQwEgYJKoZIhvcNAQkB
FgVtZWluZTCCASIwDQYJKoZIhvcNAQEBBQADggEPADCCAQoCggEBAM881DMOEsTm
2s22VqEcJrsmHIpKc6hYirYes4uZ0h0HwpKJecBp2MjfKGGYHrP+riu9eKn3bkfc
o6AWjIUCwU6S/XJu8MgDKZu4AG7Ag5XINCA2nLPl5OZ2c6MarUCW4FNUAOx2eZrG
DX62vSnsg/PLiaTLbAC6DMV4D/9puJT0BHBDP9ie16f7Xc51jtrnxAexnd5viEu2
TZrP+bz6n80ybfY6Cw0jQnjsl0K/Dk1gVuHTAvIZy4RXkOVwoaKDNYbi2oaf+YrE
ebNSKNrLuzTK09qRSs+NdqKya5v5lv0JKtoRI03wy9aysQ4SbJoZZZiHyuTuJM5E
rJCPnRvFKp0CAwEAAaOCAQ4wggEKMAsGA1UdDwQEAwIFoDAJBgNVHRMEAjAAMBEG
CWCGSAGG+EIBAQQEAwIGQDAzBglghkgBhvhCAQ0EJhYkT3BlblNTTCBHZW5lcmF0
ZWQgU2VydmVyIENlcnRpZmljYXRlMB0GA1UdDgQWBBRNB5Ct/x0N5xrd1i76ujTL
qh8kxjB0BgNVHSMEbTBrgBT0p8DMkUavZPOR8if4yLJviocyc6FIpEYwRDELMAkG
A1UEBhMCREUxDzANBgNVBAgMBkhlc3NlbjEUMBIGA1UECgwLcHJpdmFjeWlkZWEx
DjAMBgNVBAMMBUNBMDAxggkA+8jrrIPNEgcwEwYDVR0lBAwwCgYIKwYBBQUHAwEw
DQYJKoZIhvcNAQELBQADggEBABl6QG5jrweMAwdP6l3vJE/W9DhxjgHDlNVvx6v2
y9ql27LeasgIP0lG/2bs3kF3w91F/7H/gsoFgOh1OzvHUh11T8wgJKTxRToSz4GL
9lHLjB7QF87ivGK7ykFoWUaChZbUj0qTCu5SEAxtKT6jku+/KdEdEr33lElgx/zq
/zEsITsD4w5B6sKa6Uq7NUqutvX1A6j4l6XqmjiY0nEbIrHthoxZiU0mju0GQJZ3
FJk+TS9Ffk/nl1HMPIvR4P85MyZiK5XbfAbI2RUukNKo0aNs10wLXD9xbBLE9k9Q
7zIGnxNCqTYejITJH23MKw2IWn3UQUgBvaQFE5W6S37I0bA=
-----END CERTIFICATE-----
