Certificate:
    Data:
        Version: 3 (0x2)
        Serial Number: 268435666 (0x100000d2)
        Signature Algorithm: sha256WithRSAEncryption
        Issuer: C=DE, ST=Hessen, O=privacyidea, CN=CA001
        Validity
            Not Before: Jan 17 10:42:22 2020 GMT
            Not After : Jan 16 10:42:22 2021 GMT
        Subject: C=DE, ST=Hessen, O=privacyidea, CN=requester.localdomain
        Subject Public Key Info:
            Public Key Algorithm: rsaEncryption
                RSA Public-Key: (2048 bit)
                Modulus:
                    00:cd:be:14:4f:fa:ce:01:3f:42:22:1b:1d:9c:af:
                    dd:92:d2:7f:db:6c:b7:3e:39:43:43:6b:13:03:f1:
                    05:f4:07:74:bc:76:69:28:0b:af:19:8e:d7:fc:e3:
                    cd:c6:58:f2:ca:7f:08:6d:53:fc:07:02:44:24:c6:
                    b4:34:4c:8c:04:fe:33:0e:40:e2:20:ba:02:73:5a:
                    f7:f5:4f:63:6e:cc:c6:b6:df:54:1d:37:39:7d:51:
                    36:26:5f:bd:dc:3f:a8:8b:6b:a2:ae:b6:9d:d6:21:
                    e7:df:41:b8:7a:28:2a:68:48:ca:a8:2d:ed:e1:e9:
                    46:5e:5a:72:6d:b4:84:38:87:91:fd:94:11:0b:28:
                    84:c6:c2:2f:2a:fb:01:f9:36:7a:09:75:d1:33:88:
                    3c:73:41:5b:c8:bf:94:89:70:a1:f0:c0:b9:2e:50:
                    53:1e:b1:17:64:69:f4:2d:81:e0:a9:0d:0e:32:e9:
                    ba:55:8a:85:f1:1b:6f:49:79:b4:7f:88:c3:0d:3e:
                    54:88:9b:3d:1f:38:8c:04:f3:ee:6a:63:2b:f5:c6:
                    db:b4:83:aa:c4:78:41:3a:7d:4b:e1:c8:3e:71:ca:
                    1b:61:59:ea:c6:c4:ca:32:5e:c9:e9:bf:12:29:e6:
                    c6:c3:63:fe:a0:55:da:7a:f1:60:98:4d:26:ed:fa:
                    70:2d
                Exponent: 65537 (0x10001)
        X509v3 extensions:
            X509v3 Key Usage: 
                Digital Signature, Key Encipherment
            X509v3 Basic Constraints: 
                CA:FALSE
            Netscape Cert Type: 
                SSL Server
            Netscape Comment: 
                OpenSSL Generated Server Certificate
            X509v3 Subject Key Identifier: 
                53:3F:ED:5D:09:07:B3:65:7B:AB:45:C9:24:5B:09:77:80:0A:96:ED
            X509v3 Authority Key Identifier: 
                keyid:F4:A7:C0:CC:91:46:AF:64:F3:91:F2:27:F8:C8:B2:6F:8A:87:32:73
                DirName:/C=DE/ST=Hessen/O=privacyidea/CN=CA001
                serial:FB:C8:EB:AC:83:CD:12:07

            X509v3 Extended Key Usage: 
                TLS Web Server Authentication
    Signature Algorithm: sha256WithRSAEncryption
         7f:e0:a1:fd:86:9e:cc:2b:ce:85:85:45:3a:43:b2:e1:e2:ba:
         29:6b:d8:bb:cb:bc:6d:31:22:1c:6e:1a:39:08:d7:14:73:a7:
         24:9e:ec:da:f3:a2:78:52:79:6c:29:d5:e4:48:e5:97:54:95:
         04:1b:32:2f:63:c4:d1:29:6b:7c:57:91:02:b5:31:29:06:45:
         a9:d7:0d:e3:e2:79:f1:a5:fc:c8:f0:8c:8f:8e:0b:58:c3:53:
         3e:df:bf:32:c6:43:f5:57:c7:7f:fe:50:ee:c7:52:fd:1c:b4:
         49:02:93:e6:de:b0:d3:87:c0:b2:e1:7b:03:25:ce:29:8e:17:
         34:9a:79:b2:87:d4:e1:5e:ac:06:8c:d2:f6:bf:90:2c:df:19:
         e4:61:e5:16:04:85:6d:1a:29:7d:71:b5:f2:35:6b:cc:09:46:
         94:74:72:f4:93:69:9c:c6:a2:77:d8:92:99:6c:43:08:5e:8d:
         39:27:12:a5:69:a2:5d:3f:f9:0d:d5:85:4e:0a:78:65:b4:46:
         8f:13:22:c5:ed:58:3a:2e:ff:07:d6:17:35:6b:2f:8a:a0:c2:
         59:df:7e:7b:25:a2:99:e0:b1:52:c5:37:1e:02:28:de:78:96:
         15:d5:2e:12:1b:1d:87:c2:62:ec:c7:3a:02:ee:32:09:bf:56:
         04:0a:7d:d9
-----BEGIN CERTIFICATE-----
MIIEJjCCAw6gAwIBAgIEEAAA0jANBgkqhkiG9w0BAQsFADBEMQswCQYDVQQGEwJE
RTEPMA0GA1UECAwGSGVzc2VuMRQwEgYDVQQKDAtwcml2YWN5aWRlYTEOMAwGA1UE
AwwFQ0EwMDEwHhcNMjAwMTE3MTA0MjIyWhcNMjEwMTE2MTA0MjIyWjBUMQswCQYD
VQQGEwJERTEPMA0GA1UECAwGSGVzc2VuMRQwEgYDVQQKDAtwcml2YWN5aWRlYTEe
MBwGA1UEAwwVcmVxdWVzdGVyLmxvY2FsZG9tYWluMIIBIjANBgkqhkiG9w0BAQEF
AAOCAQ8AMIIBCgKCAQEAzb4UT/rOAT9CIhsdnK/dktJ/22y3PjlDQ2sTA/EF9Ad0
vHZpKAuvGY7X/OPNxljyyn8IbVP8BwJEJMa0NEyMBP4zDkDiILoCc1r39U9jbszG
tt9UHTc5fVE2Jl+93D+oi2uirrad1iHn30G4eigqaEjKqC3t4elGXlpybbSEOIeR
/ZQRCyiExsIvKvsB+TZ6CXXRM4g8c0FbyL+UiXCh8MC5LlBTHrEXZGn0LYHgqQ0O
Mum6VYqF8RtvSXm0f4jDDT5UiJs9HziMBPPuamMr9cbbtIOqxHhBOn1L4cg+ccob
YVnqxsTKMl7J6b8SKebGw2P+oFXaevFgmE0m7fpwLQIDAQABo4IBDjCCAQowCwYD
VR0PBAQDAgWgMAkGA1UdEwQCMAAwEQYJYIZIAYb4QgEBBAQDAgZAMDMGCWCGSAGG
+EIBDQQmFiRPcGVuU1NMIEdlbmVyYXRlZCBTZXJ2ZXIgQ2VydGlmaWNhdGUwHQYD
VR0OBBYEFFM/7V0JB7Nle6tFySRbCXeACpbtMHQGA1UdIwRtMGuAFPSnwMyRRq9k
85HyJ/jIsm+KhzJzoUikRjBEMQswCQYDVQQGEwJERTEPMA0GA1UECAwGSGVzc2Vu
MRQwEgYDVQQKDAtwcml2YWN5aWRlYTEOMAwGA1UEAwwFQ0EwMDGCCQD7yOusg80S
BzATBgNVHSUEDDAKBggrBgEFBQcDATANBgkqhkiG9w0BAQsFAAOCAQEAf+Ch/Yae
zCvOhYVFOkOy4eK6KWvYu8u8bTEiHG4aOQjXFHOnJJ7s2vOieFJ5bCnV5Ejll1SV
BBsyL2PE0SlrfFeRArUxKQZFqdcN4+J58aX8yPCMj44LWMNTPt+/MsZD9VfHf/5Q
7sdS/Ry0SQKT5t6w04fAsuF7AyXOKY4XNJp5sofU4V6sBozS9r+QLN8Z5GHlFgSF
bRopfXG18jVrzAlGlHRy9JNpnMaid9iSmWxDCF6NOScSpWmiXT/5DdWFTgp4ZbRG
jxMixe1YOi7/B9YXNWsviqDCWd9+eyWimeCxUsU3HgIo3niWFdUuEhsdh8Ji7Mc6
Au4yCb9WBAp92Q==
-----END CERTIFICATE-----
