Certificate:
    Data:
        Version: 3 (0x2)
        Serial Number: 268435665 (0x100000d1)
        Signature Algorithm: sha256WithRSAEncryption
        Issuer: C=DE, ST=Hessen, O=privacyidea, CN=CA001
        Validity
            Not Before: Jan 17 10:40:53 2020 GMT
            Not After : Jan 16 10:40:53 2021 GMT
        Subject: OU=realm1, CN=cornelius/emailAddress=user@localhost.localdomain
        Subject Public Key Info:
            Public Key Algorithm: rsaEncryption
                RSA Public-Key: (2048 bit)
                Modulus:
                    00:dc:13:71:02:8c:54:37:c7:73:72:dd:78:a7:ea:
                    1a:2b:bd:af:24:7e:d5:3d:a8:60:5b:7c:60:38:c2:
                    36:94:65:df:b9:01:bf:b6:d5:f2:de:a4:d8:39:1b:
                    50:8d:aa:04:7e:dc:b4:d7:07:6d:0e:a4:2d:ba:31:
                    bd:0c:c7:f2:3e:f6:bd:a5:51:d7:ce:4d:4a:61:a7:
                    de:2b:99:b0:30:fd:33:91:84:03:c2:3e:41:94:b6:
                    77:2a:cf:fe:84:30:aa:64:2f:d8:99:85:eb:6d:ca:
                    c1:a3:41:60:2d:b1:95:87:49:e8:a4:de:c7:ac:b3:
                    72:66:a0:24:33:e3:37:27:0d:3b:c4:27:94:46:28:
                    82:59:bb:57:90:a0:07:76:3a:c4:58:3b:bf:21:87:
                    58:a8:4a:f5:66:bd:4e:46:99:2f:23:71:15:9c:7f:
                    0f:1a:ae:75:6b:fc:00:2c:95:50:e2:90:a6:52:d9:
                    a4:b0:1c:55:a3:b9:0f:fe:a0:cd:41:2f:72:a3:fe:
                    92:73:72:c3:1e:f9:d0:04:cc:3b:a7:37:c1:fd:e6:
                    c5:9b:bf:a3:22:7d:d1:96:7c:e2:05:c3:2f:d7:e1:
                    26:16:10:2b:3f:2f:9d:df:f6:6b:93:73:e9:3b:b2:
                    ac:01:fd:b0:83:cb:4a:54:d2:8c:48:11:18:fc:a0:
                    cf:a3
                Exponent: 65537 (0x10001)
        X509v3 extensions:
            X509v3 Key Usage: 
                Digital Signature, Key Encipherment
            X509v3 Basic Constraints: 
                CA:FALSE
            Netscape Cert Type: 
                SSL Server
            Netscape Comment: 
                OpenSSL Generated Server Certificate
            X509v3 Subject Key Identifier: 
                D5:81:44:FF:AB:E5:5B:CE:BF:7E:C2:48:BE:1B:21:91:38:97:53:66
            X509v3 Authority Key Identifier: 
                keyid:F4:A7:C0:CC:91:46:AF:64:F3:91:F2:27:F8:C8:B2:6F:8A:87:32:73
                DirName:/C=DE/ST=Hessen/O=privacyidea/CN=CA001
                serial:FB:C8:EB:AC:83:CD:12:07

            X509v3 Extended Key Usage: 
                TLS Web Server Authentication
    Signature Algorithm: sha256WithRSAEncryption
         64:53:b1:4d:7b:ae:93:fa:42:61:7a:f7:d9:ca:86:74:b3:2e:
         23:41:b8:06:01:50:ed:dd:f7:d1:bf:77:61:e3:52:39:bf:05:
         a3:38:11:47:be:01:70:53:ca:a2:ca:cb:65:a7:d8:44:b4:c1:
         04:45:25:03:46:c5:3a:cb:b6:bd:77:2f:54:a0:d9:62:2e:d7:
         59:b1:79:93:7e:7f:0c:d7:ec:9e:b9:18:61:04:6b:7e:5f:59:
         3b:6a:e5:8e:5c:fc:ec:d0:b5:bf:b0:8c:c9:48:3a:bf:1b:76:
         05:ac:13:82:e2:50:7f:51:03:ef:b4:73:30:22:45:2c:e8:1b:
         e1:fe:16:20:3b:56:2e:a1:7c:bd:b0:3e:f5:38:50:77:82:c0:
         43:ca:81:b3:37:4f:c5:72:5c:fa:27:b8:e8:fd:cd:87:df:b9:
         d0:68:4a:d4:f0:e6:28:ae:fe:a8:4b:43:26:0f:cc:b0:3f:f5:
         ec:c1:a7:ce:86:fb:83:26:97:10:87:09:67:dd:52:ce:9b:bd:
         eb:8d:48:19:8a:1c:70:fb:9f:4f:a5:45:c8:6a:0b:0b:95:c5:
         04:ed:fd:a4:0d:e3:b6:1d:ac:b0:7b:48:64:8a:98:d7:d2:86:
         b9:14:c4:95:02:96:4c:57:86:e9:26:c6:84:82:26:b7:c9:24:
         45:c4:e8:cf
-----BEGIN CERTIFICATE-----
MIIEIjCCAwqgAwIBAgIEEAAA0TANBgkqhkiG9w0BAQsFADBEMQswCQYDVQQGEwJE
RTEPMA0GA1UECAwGSGVzc2VuMRQwEgYDVQQKDAtwcml2YWN5aWRlYTEOMAwGA1UE
AwwFQ0EwMDEwHhcNMjAwMTE3MTA0MDUzWhcNMjEwMTE2MTA0MDUzWjBQMQ8wDQYD
VQQLDAZyZWFsbTExEjAQBgNVBAMMCWNvcm5lbGl1czEpMCcGCSqGSIb3DQEJARYa
dXNlckBsb2NhbGhvc3QubG9jYWxkb21haW4wggEiMA0GCSqGSIb3DQEBAQUAA4IB
DwAwggEKAoIBAQDcE3ECjFQ3x3Ny3Xin6horva8kftU9qGBbfGA4wjaUZd+5Ab+2
1fLepNg5G1CNqgR+3LTXB20OpC26Mb0Mx/I+9r2lUdfOTUphp94rmbAw/TORhAPC
PkGUtncqz/6EMKpkL9iZhettysGjQWAtsZWHSeik3sess3JmoCQz4zcnDTvEJ5RG
KIJZu1eQoAd2OsRYO78hh1ioSvVmvU5GmS8jcRWcfw8arnVr/AAslVDikKZS2aSw
HFWjuQ/+oM1BL3Kj/pJzcsMe+dAEzDunN8H95sWbv6MifdGWfOIFwy/X4SYWECs/
L53f9muTc+k7sqwB/bCDy0pU0oxIERj8oM+jAgMBAAGjggEOMIIBCjALBgNVHQ8E
BAMCBaAwCQYDVR0TBAIwADARBglghkgBhvhCAQEEBAMCBkAwMwYJYIZIAYb4QgEN
BCYWJE9wZW5TU0wgR2VuZXJhdGVkIFNlcnZlciBDZXJ0aWZpY2F0ZTAdBgNVHQ4E
FgQU1YFE/6vlW86/fsJIvhshkTiXU2YwdAYDVR0jBG0wa4AU9KfAzJFGr2TzkfIn
+Miyb4qHMnOhSKRGMEQxCzAJBgNVBAYTAkRFMQ8wDQYDVQQIDAZIZXNzZW4xFDAS
BgNVBAoMC3ByaXZhY3lpZGVhMQ4wDAYDVQQDDAVDQTAwMYIJAPvI66yDzRIHMBMG
A1UdJQQMMAoGCCsGAQUFBwMBMA0GCSqGSIb3DQEBCwUAA4IBAQBkU7FNe66T+kJh
evfZyoZ0sy4jQbgGAVDt3ffRv3dh41I5vwWjOBFHvgFwU8qiystlp9hEtMEERSUD
RsU6y7a9dy9UoNliLtdZsXmTfn8M1+yeuRhhBGt+X1k7auWOXPzs0LW/sIzJSDq/
G3YFrBOC4lB/UQPvtHMwIkUs6Bvh/hYgO1YuoXy9sD71OFB3gsBDyoGzN0/Fclz6
J7jo/c2H37nQaErU8OYorv6oS0MmD8ywP/XswafOhvuDJpcQhwln3VLOm73rjUgZ
ihxw+59PpUXIagsLlcUE7f2kDeO2Haywe0hkipjX0oa5FMSVApZMV4bpJsaEgia3
ySRFxOjP
-----END CERTIFICATE-----
