Certificate:
    Data:
        Version: 3 (0x2)
        Serial Number: 268435673 (0x100000d9)
        Signature Algorithm: sha256WithRSAEncryption
        Issuer: C=DE, ST=Hessen, O=privacyidea, CN=CA001
        Validity
            Not Before: Jan 14 22:33:52 2020 GMT
            Not After : Jan 13 22:33:52 2021 GMT
        Subject: CN=selfservice,CN=user,O=realm1/emailAddress=meine
        Subject Public Key Info:
            Public Key Algorithm: rsaEncryption
                RSA Public-Key: (2048 bit)
                Modulus:
                    00:cf:3c:d4:33:0e:12:c4:e6:da:cd:b6:56:a1:1c:
                    26:bb:26:1c:8a:4a:73:a8:58:8a:b6:1e:b3:8b:99:
                    d2:1d:07:c2:92:89:79:c0:69:d8:c8:df:28:61:98:
                    1e:b3:fe:ae:2b:bd:78:a9:f7:6e:47:dc:a3:a0:16:
                    8c:85:02:c1:4e:92:fd:72:6e:f0:c8:03:29:9b:b8:
                    00:6e:c0:83:95:c8:34:20:36:9c:b3:e5:e4:e6:76:
                    73:a3:1a:ad:40:96:e0:53:54:00:ec:76:79:9a:c6:
                    0d:7e:b6:bd:29:ec:83:f3:cb:89:a4:cb:6c:00:ba:
                    0c:c5:78:0f:ff:69:b8:94:f4:04:70:43:3f:d8:9e:
                    d7:a7:fb:5d:ce:75:8e:da:e7:c4:07:b1:9d:de:6f:
                    88:4b:b6:4d:9a:cf:f9:bc:fa:9f:cd:32:6d:f6:3a:
                    0b:0d:23:42:78:ec:97:42:bf:0e:4d:60:56:e1:d3:
                    02:f2:19:cb:84:57:90:e5:70:a1:a2:83:35:86:e2:
                    da:86:9f:f9:8a:c4:79:b3:52:28:da:cb:bb:34:ca:
                    d3:da:91:4a:cf:8d:76:a2:b2:6b:9b:f9:96:fd:09:
                    2a:da:11:23:4d:f0:cb:d6:b2:b1:0e:12:6c:9a:19:
                    65:98:87:ca:e4:ee:24:ce:44:ac:90:8f:9d:1b:c5:
                    2a:9d
                Exponent: 65537 (0x10001)
        X509v3 extensions:
            X509v3 Key Usage: 
                Digital Signature, Key Encipherment
            X509v3 Basic Constraints: 
                CA:FALSE
            Netscape Cert Type: 
                SSL Server
            Netscape Comment: 
                OpenSSL Generated Server Certificate
            X509v3 Subject Key Identifier: 
                4D:07:90:AD:FF:1D:0D:E7:1A:DD:D6:2E:FA:BA:34:CB:AA:1F:24:C6
            X509v3 Authority Key Identifier: 
                keyid:F4:A7:C0:CC:91:46:AF:64:F3:91:F2:27:F8:C8:B2:6F:8A:87:32:73
                DirName:/C=DE/ST=Hessen/O=privacyidea/CN=CA001
                serial:FB:C8:EB:AC:83:CD:12:07

            X509v3 Extended Key Usage: 
                TLS Web Server Authentication
    Signature Algorithm: sha256WithRSAEncryption
         4f:3b:8a:6b:f7:56:a7:9d:89:73:95:eb:d4:d0:d7:db:46:ea:
         a0:66:99:85:03:7a:62:df:15:15:d1:2e:9b:5a:eb:40:45:2f:
         13:a2:89:37:ec:10:8f:3d:26:ce:17:2e:0d:37:a6:bf:4a:68:
         0a:c1:6b:fd:5d:2f:59:4b:9e:32:de:b6:eb:f8:8f:ad:bb:ca:
         29:b5:e9:29:c7:fb:ba:d9:c7:0f:98:70:34:ec:91:da:01:6d:
         9c:06:70:07:31:0c:c7:a0:a3:ca:cd:b5:ab:81:24:c9:b3:0f:
         fe:f0:20:4c:92:80:5f:86:cc:0d:e1:25:ed:56:a9:a1:92:cc:
         aa:82:28:a4:d7:c8:58:e7:d8:6f:f5:51:70:e2:2f:5b:21:20:
         73:8d:00:2c:13:ed:05:08:da:ac:01:31:8c:61:70:58:de:2d:
         cd:e2:4b:a5:fe:87:90:f2:ae:20:60:38:dc:cb:30:35:92:5c:
         e2:6a:57:d2:2e:83:95:5c:76:5c:9a:57:34:af:4d:63:22:9e:
         8f:e0:f9:e9:7f:c4:79:fb:80:a2:5a:81:bc:b3:e2:3e:2a:4b:
         cb:87:52:81:57:93:a0:a0:e0:57:01:1f:48:0e:12:46:7f:7a:
         cb:25:79:25:56:16:1b:53:93:a8:9f:7b:02:26:35:1c:f0:25:
         61:85:81:cc
-----BEGIN CERTIFICATE-----
MIIEDzCCAvegAwIBAgIEEAAA2TANBgkqhkiG9w0BAQsFADBEMQswCQYDVQQGEwJE
RTEPMA0GA1UECAwGSGVzc2VuMRQwEgYDVQQKDAtwcml2YWN5aWRlYTEOMAwGA1UE
AwwFQ0EwMDEwHhcNMjAwMTE0MjIzMzUyWhcNMjEwMTEzMjIzMzUyWjA9MSUwIwYD
VQQDDBxzZWxmc2VydmljZSxDTj11c2VyLE89cmVhbG0xMRQwEgYJKoZIhvcNAQkB
FgVtZWluZTCCASIwDQYJKoZIhvcNAQEBBQADggEPADCCAQoCggEBAM881DMOEsTm
2s22VqEcJrsmHIpKc6hYirYes4uZ0h0HwpKJecBp2MjfKGGYHrP+riu9eKn3bkfc
o6AWjIUCwU6S/XJu8MgDKZu4AG7Ag5XINCA2nLPl5OZ2c6MarUCW4FNUAOx2eZrG
DX62vSnsg/PLiaTLbAC6DMV4D/9puJT0BHBDP9ie16f7Xc51jtrnxAexnd5viEu2
TZrP+bz6n80ybfY6Cw0jQnjsl0K/Dk1gVuHTAvIZy4RXkOVwoaKDNYbi2oaf+YrE
ebNSKNrLuzTK09qRSs+NdqKya5v5lv0JKtoRI03wy9aysQ4SbJoZZZiHyuTuJM5E
rJCPnRvFKp0CAwEAAaOCAQ4wggEKMAsGA1UdDwQEAwIFoDAJBgNVHRMEAjAAMBEG
CWCGSAGG+EIBAQQEAwIGQDAzBglghkgBhvhCAQ0EJhYkT3BlblNTTCBHZW5lcmF0
ZWQgU2VydmVyIENlcnRpZmljYXRlMB0GA1UdDgQWBBRNB5Ct/x0N5xrd1i76ujTL
qh8kxjB0BgNVHSMEbTBrgBT0p8DMkUavZPOR8if4yLJviocyc6FIpEYwRDELMAkG
A1UEBhMCREUxDzANBgNVBAgMBkhlc3NlbjEUMBIGA1UECgwLcHJpdmFjeWlkZWEx
DjAMBgNVBAMMBUNBMDAxggkA+8jrrIPNEgcwEwYDVR0lBAwwCgYIKwYBBQUHAwEw
DQYJKoZIhvcNAQELBQADggEBAE87imv3VqediXOV69TQ19tG6qBmmYUDemLfFRXR
Lpta60BFLxOiiTfsEI89Js4XLg03pr9KaArBa/1dL1lLnjLetuv4j627yim16SnH
+7rZxw+YcDTskdoBbZwGcAcxDMego8rNtauBJMmzD/7wIEySgF+GzA3hJe1WqaGS
zKqCKKTXyFjn2G/1UXDiL1shIHONACwT7QUI2qwBMYxhcFjeLc3iS6X+h5DyriBg
ONzLMDWSXOJqV9Iug5VcdlyaVzSvTWMino/g+el/xHn7gKJagbyz4j4qS8uHUoFX
k6Cg4FcBH0gOEkZ/essleSVWFhtTk6ifewImNRzwJWGFgcw=
-----END CERTIFICATE-----
