Certificate:
    Data:
        Version: 3 (0x2)
        Serial Number: 268435670 (0x100000d6)
        Signature Algorithm: sha256WithRSAEncryption
        Issuer: C=DE, ST=Hessen, O=privacyidea, CN=CA001
        Validity
            Not Before: Jan 17 10:44:26 2020 GMT
            Not After : Jan 16 10:44:26 2021 GMT
        Subject: C=DE, ST=Hessen, O=privacyidea, CN=requester.localdomain
        Subject Public Key Info:
            Public Key Algorithm: rsaEncryption
                RSA Public-Key: (2048 bit)
                Modulus:
                    00:cd:be:14:4f:fa:ce:01:3f:42:22:1b:1d:9c:af:
                    dd:92:d2:7f:db:6c:b7:3e:39:43:43:6b:13:03:f1:
                    05:f4:07:74:bc:76:69:28:0b:af:19:8e:d7:fc:e3:
                    cd:c6:58:f2:ca:7f:08:6d:53:fc:07:02:44:24:c6:
                    b4:34:4c:8c:04:fe:33:0e:40:e2:20:ba:02:73:5a:
                    f7:f5:4f:63:6e:cc:c6:b6:df:54:1d:37:39:7d:51:
                    36:26:5f:bd:dc:3f:a8:8b:6b:a2:ae:b6:9d:d6:21:
                    e7:df:41:b8:7a:28:2a:68:48:ca:a8:2d:ed:e1:e9:
                    46:5e:5a:72:6d:b4:84:38:87:91:fd:94:11:0b:28:
                    84:c6:c2:2f:2a:fb:01:f9:36:7a:09:75:d1:33:88:
                    3c:73:41:5b:c8:bf:94:89:70:a1:f0:c0:b9:2e:50:
                    53:1e:b1:17:64:69:f4:2d:81:e0:a9:0d:0e:32:e9:
                    ba:55:8a:85:f1:1b:6f:49:79:b4:7f:88:c3:0d:3e:
                    54:88:9b:3d:1f:38:8c:04:f3:ee:6a:63:2b:f5:c6:
                    db:b4:83:aa:c4:78:41:3a:7d:4b:e1:c8:3e:71:ca:
                    1b:61:59:ea:c6:c4:ca:32:5e:c9:e9:bf:12:29:e6:
                    c6:c3:63:fe:a0:55:da:7a:f1:60:98:4d:26:ed:fa:
                    70:2d
                Exponent: 65537 (0x10001)
        X509v3 extensions:
            X509v3 Key Usage: 
                Digital Signature, Key Encipherment
            X509v3 Basic Constraints: 
                CA:FALSE
            Netscape Cert Type: 
                SSL Server
            Netscape Comment: 
                OpenSSL Generated Server Certificate
            X509v3 Subject Key Identifier: 
                53:3F:ED:5D:09:07:B3:65:7B:AB:45:C9:24:5B:09:77:80:0A:96:ED
            X509v3 Authority Key Identifier: 
                keyid:F4:A7:C0:CC:91:46:AF:64:F3:91:F2:27:F8:C8:B2:6F:8A:87:32:73
                DirName:/C=DE/ST=Hessen/O=privacyidea/CN=CA001
                serial:FB:C8:EB:AC:83:CD:12:07

            X509v3 Extended Key Usage: 
                TLS Web Server Authentication
    Signature Algorithm: sha256WithRSAEncryption
         55:de:b8:04:4f:4a:ff:36:fa:65:c3:7a:60:1c:21:39:b6:6f:
         67:12:ac:24:26:ff:ed:5d:f0:21:f0:f3:c1:8a:6f:8b:e5:49:
         fd:9d:83:4d:40:1a:a8:e5:cc:74:8b:ff:67:c2:6e:53:40:25:
         5e:e3:80:e7:12:a4:ea:d9:99:ec:79:ae:25:d5:91:95:c4:c7:
         2e:b2:53:1b:60:1c:6f:28:da:b1:b4:d3:60:42:df:3d:89:17:
         49:30:cd:0f:67:28:9c:f0:49:92:d0:0b:09:e2:01:92:35:b0:
         99:ff:38:67:11:a3:49:ca:ed:7f:77:99:c4:19:b6:c8:35:64:
         fb:d3:6e:fb:68:6b:67:b5:c9:6f:3c:f8:e8:31:01:d1:c4:18:
         79:9e:73:1f:60:e3:80:35:32:cc:27:02:87:3d:c0:51:16:8f:
         29:4f:bb:a5:29:a2:3a:1b:80:48:f0:44:87:5f:e0:e3:16:6c:
         fb:39:06:3a:d5:cc:80:35:92:f2:63:6a:29:bd:ca:49:ea:15:
         2b:4a:07:95:52:d7:71:37:ba:c8:58:d3:cc:90:75:32:39:c3:
         0c:39:75:19:96:a7:ea:f0:34:be:a6:85:15:da:f8:24:90:4a:
         a3:d2:70:85:21:e3:54:0a:3f:a9:8e:4b:86:62:34:f3:b4:14:
         31:66:f5:f8
-----BEGIN CERTIFICATE-----
MIIEJjCCAw6gAwIBAgIEEAAA1jANBgkqhkiG9w0BAQsFADBEMQswCQYDVQQGEwJE
RTEPMA0GA1UECAwGSGVzc2VuMRQwEgYDVQQKDAtwcml2YWN5aWRlYTEOMAwGA1UE
AwwFQ0EwMDEwHhcNMjAwMTE3MTA0NDI2WhcNMjEwMTE2MTA0NDI2WjBUMQswCQYD
VQQGEwJERTEPMA0GA1UECAwGSGVzc2VuMRQwEgYDVQQKDAtwcml2YWN5aWRlYTEe
MBwGA1UEAwwVcmVxdWVzdGVyLmxvY2FsZG9tYWluMIIBIjANBgkqhkiG9w0BAQEF
AAOCAQ8AMIIBCgKCAQEAzb4UT/rOAT9CIhsdnK/dktJ/22y3PjlDQ2sTA/EF9Ad0
vHZpKAuvGY7X/OPNxljyyn8IbVP8BwJEJMa0NEyMBP4zDkDiILoCc1r39U9jbszG
tt9UHTc5fVE2Jl+93D+oi2uirrad1iHn30G4eigqaEjKqC3t4elGXlpybbSEOIeR
/ZQRCyiExsIvKvsB+TZ6CXXRM4g8c0FbyL+UiXCh8MC5LlBTHrEXZGn0LYHgqQ0O
Mum6VYqF8RtvSXm0f4jDDT5UiJs9HziMBPPuamMr9cbbtIOqxHhBOn1L4cg+ccob
YVnqxsTKMl7J6b8SKebGw2P+oFXaevFgmE0m7fpwLQIDAQABo4IBDjCCAQowCwYD
VR0PBAQDAgWgMAkGA1UdEwQCMAAwEQYJYIZIAYb4QgEBBAQDAgZAMDMGCWCGSAGG
+EIBDQQmFiRPcGVuU1NMIEdlbmVyYXRlZCBTZXJ2ZXIgQ2VydGlmaWNhdGUwHQYD
VR0OBBYEFFM/7V0JB7Nle6tFySRbCXeACpbtMHQGA1UdIwRtMGuAFPSnwMyRRq9k
85HyJ/jIsm+KhzJzoUikRjBEMQswCQYDVQQGEwJERTEPMA0GA1UECAwGSGVzc2Vu
MRQwEgYDVQQKDAtwcml2YWN5aWRlYTEOMAwGA1UEAwwFQ0EwMDGCCQD7yOusg80S
BzATBgNVHSUEDDAKBggrBgEFBQcDATANBgkqhkiG9w0BAQsFAAOCAQEAVd64BE9K
/zb6ZcN6YBwhObZvZxKsJCb/7V3wIfDzwYpvi+VJ/Z2DTUAaqOXMdIv/Z8JuU0Al
XuOA5xKk6tmZ7HmuJdWRlcTHLrJTG2AcbyjasbTTYELfPYkXSTDND2conPBJktAL
CeIBkjWwmf84ZxGjScrtf3eZxBm2yDVk+9Nu+2hrZ7XJbzz46DEB0cQYeZ5zH2Dj
gDUyzCcChz3AURaPKU+7pSmiOhuASPBEh1/g4xZs+zkGOtXMgDWS8mNqKb3KSeoV
K0oHlVLXcTe6yFjTzJB1MjnDDDl1GZan6vA0vqaFFdr4JJBKo9JwhSHjVAo/qY5L
hmI087QUMWb1+A==
-----END CERTIFICATE-----
