Certificate:
    Data:
        Version: 3 (0x2)
        Serial Number: 268435664 (0x100000d0)
        Signature Algorithm: sha256WithRSAEncryption
        Issuer: C=DE, ST=Hessen, O=privacyidea, CN=CA001
        Validity
            Not Before: Jan 17 10:40:52 2020 GMT
            Not After : Jan 16 10:40:52 2021 GMT
        Subject: C=DE, ST=Hessen, O=privacyidea, CN=requester.localdomain
        Subject Public Key Info:
            Public Key Algorithm: rsaEncryption
                RSA Public-Key: (2048 bit)
                Modulus:
                    00:cd:be:14:4f:fa:ce:01:3f:42:22:1b:1d:9c:af:
                    dd:92:d2:7f:db:6c:b7:3e:39:43:43:6b:13:03:f1:
                    05:f4:07:74:bc:76:69:28:0b:af:19:8e:d7:fc:e3:
                    cd:c6:58:f2:ca:7f:08:6d:53:fc:07:02:44:24:c6:
                    b4:34:4c:8c:04:fe:33:0e:40:e2:20:ba:02:73:5a:
                    f7:f5:4f:63:6e:cc:c6:b6:df:54:1d:37:39:7d:51:
                    36:26:5f:bd:dc:3f:a8:8b:6b:a2:ae:b6:9d:d6:21:
                    e7:df:41:b8:7a:28:2a:68:48:ca:a8:2d:ed:e1:e9:
                    46:5e:5a:72:6d:b4:84:38:87:91:fd:94:11:0b:28:
                    84:c6:c2:2f:2a:fb:01:f9:36:7a:09:75:d1:33:88:
                    3c:73:41:5b:c8:bf:94:89:70:a1:f0:c0:b9:2e:50:
                    53:1e:b1:17:64:69:f4:2d:81:e0:a9:0d:0e:32:e9:
                    ba:55:8a:85:f1:1b:6f:49:79:b4:7f:88:c3:0d:3e:
                    54:88:9b:3d:1f:38:8c:04:f3:ee:6a:63:2b:f5:c6:
                    db:b4:83:aa:c4:78:41:3a:7d:4b:e1:c8:3e:71:ca:
                    1b:61:59:ea:c6:c4:ca:32:5e:c9:e9:bf:12:29:e6:
                    c6:c3:63:fe:a0:55:da:7a:f1:60:98:4d:26:ed:fa:
                    70:2d
                Exponent: 65537 (0x10001)
        X509v3 extensions:
            X509v3 Key Usage: 
                Digital Signature, Key Encipherment
            X509v3 Basic Constraints: 
                CA:FALSE
            Netscape Cert Type: 
                SSL Server
            Netscape Comment: 
                OpenSSL Generated Server Certificate
            X509v3 Subject Key Identifier: 
                53:3F:ED:5D:09:07:B3:65:7B:AB:45:C9:24:5B:09:77:80:0A:96:ED
            X509v3 Authority Key Identifier: 
                keyid:F4:A7:C0:CC:91:46:AF:64:F3:91:F2:27:F8:C8:B2:6F:8A:87:32:73
                DirName:/C=DE/ST=Hessen/O=privacyidea/CN=CA001
                serial:FB:C8:EB:AC:83:CD:12:07

            X509v3 Extended Key Usage: 
                TLS Web Server Authentication
    Signature Algorithm: sha256WithRSAEncryption
         5a:70:2d:27:06:d1:5e:04:ec:45:c3:b1:63:5a:a0:a7:d2:a7:
         47:a9:1d:5a:0f:5b:08:6b:36:e8:a6:12:b4:6b:74:d1:9c:6f:
         98:75:2a:88:17:e9:bb:95:f4:54:17:0a:a6:8c:fc:d5:df:de:
         ea:2b:9a:ad:e9:d2:fb:52:fe:4c:5f:e6:a8:00:12:89:dc:fc:
         2f:ce:87:b2:00:86:c3:c6:96:a1:2d:30:60:6d:71:75:41:0d:
         ef:90:76:34:88:29:1b:4a:43:84:a5:76:5f:62:63:ea:c1:c1:
         49:34:2b:70:aa:42:62:1b:67:17:8a:14:b4:7a:f8:2b:e8:fb:
         8e:18:7b:b7:a1:f9:71:28:3c:66:39:98:23:e1:8d:7f:6a:3f:
         fa:a8:7e:dd:c2:71:ca:cd:9b:b8:f9:84:2e:97:cd:d3:9f:43:
         36:60:54:9d:f9:22:15:3e:97:9c:bc:2f:c5:25:3c:ed:03:37:
         9c:f4:4b:e3:6d:14:b1:87:dd:6e:c3:ab:dd:b0:ee:6c:aa:fe:
         3d:b6:bf:7e:26:fa:20:77:74:7d:81:d7:14:30:eb:a1:8f:e5:
         b6:13:f9:48:05:6b:e8:f5:ad:1a:df:af:0e:bd:f2:8f:67:d2:
         f5:7b:da:4a:02:e1:c0:0e:29:96:62:da:5e:2c:03:1d:79:ce:
         33:c0:c2:ed
-----BEGIN CERTIFICATE-----
MIIEJjCCAw6gAwIBAgIEEAAA0DANBgkqhkiG9w0BAQsFADBEMQswCQYDVQQGEwJE
RTEPMA0GA1UECAwGSGVzc2VuMRQwEgYDVQQKDAtwcml2YWN5aWRlYTEOMAwGA1UE
AwwFQ0EwMDEwHhcNMjAwMTE3MTA0MDUyWhcNMjEwMTE2MTA0MDUyWjBUMQswCQYD
VQQGEwJERTEPMA0GA1UECAwGSGVzc2VuMRQwEgYDVQQKDAtwcml2YWN5aWRlYTEe
MBwGA1UEAwwVcmVxdWVzdGVyLmxvY2FsZG9tYWluMIIBIjANBgkqhkiG9w0BAQEF
AAOCAQ8AMIIBCgKCAQEAzb4UT/rOAT9CIhsdnK/dktJ/22y3PjlDQ2sTA/EF9Ad0
vHZpKAuvGY7X/OPNxljyyn8IbVP8BwJEJMa0NEyMBP4zDkDiILoCc1r39U9jbszG
tt9UHTc5fVE2Jl+93D+oi2uirrad1iHn30G4eigqaEjKqC3t4elGXlpybbSEOIeR
/ZQRCyiExsIvKvsB+TZ6CXXRM4g8c0FbyL+UiXCh8MC5LlBTHrEXZGn0LYHgqQ0O
Mum6VYqF8RtvSXm0f4jDDT5UiJs9HziMBPPuamMr9cbbtIOqxHhBOn1L4cg+ccob
YVnqxsTKMl7J6b8SKebGw2P+oFXaevFgmE0m7fpwLQIDAQABo4IBDjCCAQowCwYD
VR0PBAQDAgWgMAkGA1UdEwQCMAAwEQYJYIZIAYb4QgEBBAQDAgZAMDMGCWCGSAGG
+EIBDQQmFiRPcGVuU1NMIEdlbmVyYXRlZCBTZXJ2ZXIgQ2VydGlmaWNhdGUwHQYD
VR0OBBYEFFM/7V0JB7Nle6tFySRbCXeACpbtMHQGA1UdIwRtMGuAFPSnwMyRRq9k
85HyJ/jIsm+KhzJzoUikRjBEMQswCQYDVQQGEwJERTEPMA0GA1UECAwGSGVzc2Vu
MRQwEgYDVQQKDAtwcml2YWN5aWRlYTEOMAwGA1UEAwwFQ0EwMDGCCQD7yOusg80S
BzATBgNVHSUEDDAKBggrBgEFBQcDATANBgkqhkiG9w0BAQsFAAOCAQEAWnAtJwbR
XgTsRcOxY1qgp9KnR6kdWg9bCGs26KYStGt00ZxvmHUqiBfpu5X0VBcKpoz81d/e
6iuarenS+1L+TF/mqAASidz8L86HsgCGw8aWoS0wYG1xdUEN75B2NIgpG0pDhKV2
X2Jj6sHBSTQrcKpCYhtnF4oUtHr4K+j7jhh7t6H5cSg8ZjmYI+GNf2o/+qh+3cJx
ys2buPmELpfN059DNmBUnfkiFT6XnLwvxSU87QM3nPRL420UsYfdbsOr3bDubKr+
Pba/fib6IHd0fYHXFDDroY/lthP5SAVr6PWtGt+vDr3yj2fS9XvaSgLhwA4plmLa
XiwDHXnOM8DC7Q==
-----END CERTIFICATE-----
