Certificate:
    Data:
        Version: 3 (0x2)
        Serial Number: 268435668 (0x100000d4)
        Signature Algorithm: sha256WithRSAEncryption
        Issuer: C=DE, ST=Hessen, O=privacyidea, CN=CA001
        Validity
            Not Before: Jan 17 10:42:22 2020 GMT
            Not After : Jan 16 10:42:22 2021 GMT
        Subject: CN=Steve Test/emailAddress=steve@openssl.org
        Subject Public Key Info:
            Public Key Algorithm: rsaEncryption
                RSA Public-Key: (2048 bit)
                Modulus:
                    00:d2:81:89:20:51:48:0f:73:f4:11:32:24:d5:1f:
                    1c:fd:5c:f5:b6:e6:c5:f0:52:81:dc:d2:af:66:4a:
                    7c:93:31:61:5c:af:d1:6d:06:70:03:60:7c:72:0c:
                    88:dd:49:cd:9e:02:6c:d2:5a:d7:53:0f:f3:da:be:
                    69:64:b5:0f:0c:00:e3:b3:50:47:a3:b3:9b:ba:13:
                    50:d6:58:5a:4b:ab:39:e0:11:ca:0a:27:67:03:78:
                    22:66:6d:92:1e:1b:5c:49:ae:e6:6b:d1:8e:3b:9d:
                    06:d3:c6:ac:4d:53:43:10:ab:e8:96:c1:87:82:97:
                    99:8f:20:d3:99:12:37:31:84:e1:8a:ff:29:03:5f:
                    22:90:3e:7f:9b:e0:20:c1:ad:dc:ae:4c:39:1a:31:
                    96:17:02:8c:b2:d9:b4:0d:20:12:9b:7d:86:54:fd:
                    33:fd:c1:2a:62:46:f8:60:96:cf:6e:01:6f:22:df:
                    13:47:e7:97:ec:05:72:23:a3:62:f8:fa:ef:ac:9c:
                    72:f0:37:cb:2f:37:cf:90:a8:27:51:86:c6:d7:78:
                    08:8f:7e:25:a2:15:70:a2:fb:1c:b6:15:5e:a0:97:
                    8b:81:4c:09:28:8a:27:3b:94:bc:71:db:5b:71:37:
                    9a:2b:16:e0:6f:b5:c9:f5:4b:4f:20:ba:65:cf:af:
                    ad:ad
                Exponent: 65537 (0x10001)
        X509v3 extensions:
            X509v3 Key Usage: 
                Digital Signature, Key Encipherment
            X509v3 Basic Constraints: 
                CA:FALSE
            Netscape Cert Type: 
                SSL Server
            Netscape Comment: 
                OpenSSL Generated Server Certificate
            X509v3 Subject Key Identifier: 
                E5:25:6D:3E:AF:0D:DD:3F:4C:F2:45:19:39:D5:14:DB:7E:9C:C0:AD
            X509v3 Authority Key Identifier: 
                keyid:F4:A7:C0:CC:91:46:AF:64:F3:91:F2:27:F8:C8:B2:6F:8A:87:32:73
                DirName:/C=DE/ST=Hessen/O=privacyidea/CN=CA001
                serial:FB:C8:EB:AC:83:CD:12:07

            X509v3 Extended Key Usage: 
                TLS Web Server Authentication
    Signature Algorithm: sha256WithRSAEncryption
         03:9d:21:e7:83:e8:8c:29:17:51:ea:a0:1f:65:14:62:62:da:
         94:13:46:df:69:a8:b7:28:f9:c9:7d:14:53:ff:1e:ab:8a:31:
         d8:b0:e2:5f:ae:17:c5:8b:79:9d:1a:9b:fd:37:02:b8:0c:8a:
         7a:d3:79:56:a0:96:0a:2b:5b:9e:1b:c5:2f:95:2f:66:d1:6b:
         7e:57:dd:12:6d:ef:6b:c9:19:49:3f:b8:17:04:81:26:7e:73:
         7e:5e:68:4f:2d:36:f5:55:ed:9f:c3:67:0d:9b:04:45:4c:ef:
         fa:1b:0d:ac:ed:4c:23:e3:ef:d0:da:c0:67:c0:65:bf:74:af:
         5f:8a:56:db:f1:36:9b:88:04:b0:d1:fe:a0:f4:01:95:ae:ea:
         3d:5a:88:9b:49:8f:69:73:0e:fb:f7:f7:f7:6d:0f:8d:f6:79:
         93:52:1a:5d:d3:b3:2b:53:5c:23:32:2a:fc:71:e3:86:c4:2c:
         f2:89:18:3a:27:18:53:f3:a0:90:f9:b3:d4:e8:dc:8a:3b:f1:
         73:c6:86:40:e9:d1:74:22:9b:7b:e9:c9:18:31:50:1c:aa:e1:
         1f:52:01:67:a1:1d:9c:24:db:c3:44:79:ab:d5:34:08:a3:f9:
         0e:2b:47:7f:94:7a:46:6b:34:fc:12:6f:3d:ee:80:f2:bb:ff:
         ab:9c:03:21
-----BEGIN CERTIFICATE-----
MIIECTCCAvGgAwIBAgIEEAAA1DANBgkqhkiG9w0BAQsFADBEMQswCQYDVQQGEwJE
RTEPMA0GA1UECAwGSGVzc2VuMRQwEgYDVQQKDAtwcml2YWN5aWRlYTEOMAwGA1UE
AwwFQ0EwMDEwHhcNMjAwMTE3MTA0MjIyWhcNMjEwMTE2MTA0MjIyWjA3MRMwEQYD
VQQDDApTdGV2ZSBUZXN0MSAwHgYJKoZIhvcNAQkBFhFzdGV2ZUBvcGVuc3NsLm9y
ZzCCASIwDQYJKoZIhvcNAQEBBQADggEPADCCAQoCggEBANKBiSBRSA9z9BEyJNUf
HP1c9bbmxfBSgdzSr2ZKfJMxYVyv0W0GcANgfHIMiN1JzZ4CbNJa11MP89q+aWS1
DwwA47NQR6Ozm7oTUNZYWkurOeARygonZwN4ImZtkh4bXEmu5mvRjjudBtPGrE1T
QxCr6JbBh4KXmY8g05kSNzGE4Yr/KQNfIpA+f5vgIMGt3K5MORoxlhcCjLLZtA0g
Ept9hlT9M/3BKmJG+GCWz24BbyLfE0fnl+wFciOjYvj676yccvA3yy83z5CoJ1GG
xtd4CI9+JaIVcKL7HLYVXqCXi4FMCSiKJzuUvHHbW3E3misW4G+1yfVLTyC6Zc+v
ra0CAwEAAaOCAQ4wggEKMAsGA1UdDwQEAwIFoDAJBgNVHRMEAjAAMBEGCWCGSAGG
+EIBAQQEAwIGQDAzBglghkgBhvhCAQ0EJhYkT3BlblNTTCBHZW5lcmF0ZWQgU2Vy
dmVyIENlcnRpZmljYXRlMB0GA1UdDgQWBBTlJW0+rw3dP0zyRRk51RTbfpzArTB0
BgNVHSMEbTBrgBT0p8DMkUavZPOR8if4yLJviocyc6FIpEYwRDELMAkGA1UEBhMC
REUxDzANBgNVBAgMBkhlc3NlbjEUMBIGA1UECgwLcHJpdmFjeWlkZWExDjAMBgNV
BAMMBUNBMDAxggkA+8jrrIPNEgcwEwYDVR0lBAwwCgYIKwYBBQUHAwEwDQYJKoZI
hvcNAQELBQADggEBAAOdIeeD6IwpF1HqoB9lFGJi2pQTRt9pqLco+cl9FFP/HquK
Mdiw4l+uF8WLeZ0am/03ArgMinrTeVaglgorW54bxS+VL2bRa35X3RJt72vJGUk/
uBcEgSZ+c35eaE8tNvVV7Z/DZw2bBEVM7/obDaztTCPj79DawGfAZb90r1+KVtvx
NpuIBLDR/qD0AZWu6j1aiJtJj2lzDvv39/dtD432eZNSGl3TsytTXCMyKvxx44bE
LPKJGDonGFPzoJD5s9To3Io78XPGhkDp0XQim3vpyRgxUByq4R9SAWehHZwk28NE
eavVNAij+Q4rR3+UekZrNPwSbz3ugPK7/6ucAyE=
-----END CERTIFICATE-----
