Certificate:
    Data:
        Version: 3 (0x2)
        Serial Number: 268435669 (0x100000d5)
        Signature Algorithm: sha256WithRSAEncryption
        Issuer: C=DE, ST=Hessen, O=privacyidea, CN=CA001
        Validity
            Not Before: Jan 17 10:42:22 2020 GMT
            Not After : Feb  5 10:42:22 2022 GMT
        Subject: CN=Steve Test/emailAddress=steve@openssl.org
        Subject Public Key Info:
            Public Key Algorithm: rsaEncryption
                RSA Public-Key: (2048 bit)
                Modulus:
                    00:d2:81:89:20:51:48:0f:73:f4:11:32:24:d5:1f:
                    1c:fd:5c:f5:b6:e6:c5:f0:52:81:dc:d2:af:66:4a:
                    7c:93:31:61:5c:af:d1:6d:06:70:03:60:7c:72:0c:
                    88:dd:49:cd:9e:02:6c:d2:5a:d7:53:0f:f3:da:be:
                    69:64:b5:0f:0c:00:e3:b3:50:47:a3:b3:9b:ba:13:
                    50:d6:58:5a:4b:ab:39:e0:11:ca:0a:27:67:03:78:
                    22:66:6d:92:1e:1b:5c:49:ae:e6:6b:d1:8e:3b:9d:
                    06:d3:c6:ac:4d:53:43:10:ab:e8:96:c1:87:82:97:
                    99:8f:20:d3:99:12:37:31:84:e1:8a:ff:29:03:5f:
                    22:90:3e:7f:9b:e0:20:c1:ad:dc:ae:4c:39:1a:31:
                    96:17:02:8c:b2:d9:b4:0d:20:12:9b:7d:86:54:fd:
                    33:fd:c1:2a:62:46:f8:60:96:cf:6e:01:6f:22:df:
                    13:47:e7:97:ec:05:72:23:a3:62:f8:fa:ef:ac:9c:
                    72:f0:37:cb:2f:37:cf:90:a8:27:51:86:c6:d7:78:
                    08:8f:7e:25:a2:15:70:a2:fb:1c:b6:15:5e:a0:97:
                    8b:81:4c:09:28:8a:27:3b:94:bc:71:db:5b:71:37:
                    9a:2b:16:e0:6f:b5:c9:f5:4b:4f:20:ba:65:cf:af:
                    ad:ad
                Exponent: 65537 (0x10001)
        X509v3 extensions:
            X509v3 Key Usage: 
                Digital Signature, Key Encipherment
            X509v3 Basic Constraints: 
                CA:FALSE
            Netscape Cert Type: 
                SSL Server
            Netscape Comment: 
                OpenSSL Generated Server Certificate
            X509v3 Subject Key Identifier: 
                E5:25:6D:3E:AF:0D:DD:3F:4C:F2:45:19:39:D5:14:DB:7E:9C:C0:AD
            X509v3 Authority Key Identifier: 
                keyid:F4:A7:C0:CC:91:46:AF:64:F3:91:F2:27:F8:C8:B2:6F:8A:87:32:73
                DirName:/C=DE/ST=Hessen/O=privacyidea/CN=CA001
                serial:FB:C8:EB:AC:83:CD:12:07

            X509v3 Extended Key Usage: 
                TLS Web Server Authentication
    Signature Algorithm: sha256WithRSAEncryption
         8c:69:cd:7f:93:fc:c0:3f:c7:fa:b5:df:44:29:3c:c9:37:ea:
         7e:74:d1:6a:7e:53:ed:2e:cd:8f:a1:0d:e4:7b:58:a9:94:f9:
         65:be:87:f9:78:3d:10:31:1f:83:9f:81:86:50:a8:71:d2:df:
         2f:ac:fe:a2:d5:9d:4e:83:4f:35:38:da:fa:e7:f1:b4:fd:ad:
         98:05:c4:19:bc:51:14:97:ca:78:e6:0b:85:71:15:ab:f5:48:
         d0:3b:fa:0f:99:ab:0c:dd:ed:ca:61:8b:64:05:1a:b7:b6:38:
         37:7e:e0:da:06:04:2c:e7:9b:92:3a:d5:a1:4d:47:30:55:ea:
         d6:6c:34:ff:ea:ce:59:f6:9e:8b:71:30:24:af:1e:c5:2a:a3:
         3c:87:65:29:c7:c0:02:a9:ab:eb:d2:aa:0c:91:f7:49:c5:7e:
         8d:05:25:94:c6:00:71:8f:04:e1:b1:1b:15:d8:05:b1:6a:70:
         4a:2a:66:30:16:0c:5e:4b:91:d6:f1:09:58:0c:3a:ca:70:ad:
         ff:01:bd:29:24:21:19:d1:79:99:3b:01:69:70:cc:b4:c5:ca:
         90:24:96:cf:9d:b0:4a:f5:36:99:20:e0:b7:94:5e:b6:a7:7c:
         8b:35:97:1e:b7:98:6c:0a:3d:a1:90:a3:89:07:36:97:9e:2b:
         a9:43:13:9d
-----BEGIN CERTIFICATE-----
MIIECTCCAvGgAwIBAgIEEAAA1TANBgkqhkiG9w0BAQsFADBEMQswCQYDVQQGEwJE
RTEPMA0GA1UECAwGSGVzc2VuMRQwEgYDVQQKDAtwcml2YWN5aWRlYTEOMAwGA1UE
AwwFQ0EwMDEwHhcNMjAwMTE3MTA0MjIyWhcNMjIwMjA1MTA0MjIyWjA3MRMwEQYD
VQQDDApTdGV2ZSBUZXN0MSAwHgYJKoZIhvcNAQkBFhFzdGV2ZUBvcGVuc3NsLm9y
ZzCCASIwDQYJKoZIhvcNAQEBBQADggEPADCCAQoCggEBANKBiSBRSA9z9BEyJNUf
HP1c9bbmxfBSgdzSr2ZKfJMxYVyv0W0GcANgfHIMiN1JzZ4CbNJa11MP89q+aWS1
DwwA47NQR6Ozm7oTUNZYWkurOeARygonZwN4ImZtkh4bXEmu5mvRjjudBtPGrE1T
QxCr6JbBh4KXmY8g05kSNzGE4Yr/KQNfIpA+f5vgIMGt3K5MORoxlhcCjLLZtA0g
Ept9hlT9M/3BKmJG+GCWz24BbyLfE0fnl+wFciOjYvj676yccvA3yy83z5CoJ1GG
xtd4CI9+JaIVcKL7HLYVXqCXi4FMCSiKJzuUvHHbW3E3misW4G+1yfVLTyC6Zc+v
ra0CAwEAAaOCAQ4wggEKMAsGA1UdDwQEAwIFoDAJBgNVHRMEAjAAMBEGCWCGSAGG
+EIBAQQEAwIGQDAzBglghkgBhvhCAQ0EJhYkT3BlblNTTCBHZW5lcmF0ZWQgU2Vy
dmVyIENlcnRpZmljYXRlMB0GA1UdDgQWBBTlJW0+rw3dP0zyRRk51RTbfpzArTB0
BgNVHSMEbTBrgBT0p8DMkUavZPOR8if4yLJviocyc6FIpEYwRDELMAkGA1UEBhMC
REUxDzANBgNVBAgMBkhlc3NlbjEUMBIGA1UECgwLcHJpdmFjeWlkZWExDjAMBgNV
BAMMBUNBMDAxggkA+8jrrIPNEgcwEwYDVR0lBAwwCgYIKwYBBQUHAwEwDQYJKoZI
hvcNAQELBQADggEBAIxpzX+T/MA/x/q130QpPMk36n500Wp+U+0uzY+hDeR7WKmU
+WW+h/l4PRAxH4OfgYZQqHHS3y+s/qLVnU6DTzU42vrn8bT9rZgFxBm8URSXynjm
C4VxFav1SNA7+g+Zqwzd7cphi2QFGre2ODd+4NoGBCznm5I61aFNRzBV6tZsNP/q
zln2notxMCSvHsUqozyHZSnHwAKpq+vSqgyR90nFfo0FJZTGAHGPBOGxGxXYBbFq
cEoqZjAWDF5LkdbxCVgMOspwrf8BvSkkIRnReZk7AWlwzLTFypAkls+dsEr1Npkg
4LeUXranfIs1lx63mGwKPaGQo4kHNpeeK6lDE50=
-----END CERTIFICATE-----
