Certificate:
    Data:
        Version: 3 (0x2)
        Serial Number: 268435671 (0x100000d7)
        Signature Algorithm: sha256WithRSAEncryption
        Issuer: C=DE, ST=Hessen, O=privacyidea, CN=CA001
        Validity
            Not Before: Jan 17 10:44:26 2020 GMT
            Not After : Jan 16 10:44:26 2021 GMT
        Subject: OU=realm1, CN=cornelius/emailAddress=user@localhost.localdomain
        Subject Public Key Info:
            Public Key Algorithm: rsaEncryption
                RSA Public-Key: (2048 bit)
                Modulus:
                    00:f2:c3:89:6d:32:cd:30:50:eb:d6:8f:b5:b6:59:
                    24:4f:03:9e:b8:8d:a0:96:2d:19:a9:c6:c7:d6:c7:
                    0e:98:a4:1a:0a:d3:14:b3:e8:30:68:29:d4:c4:26:
                    fd:1f:29:31:5a:8f:67:3e:d7:79:a1:c6:b9:84:6c:
                    a3:50:86:d2:0b:4e:14:13:47:42:23:8e:e3:2e:00:
                    85:bc:2f:14:90:82:4c:c6:13:88:04:0c:d7:26:06:
                    18:c6:5e:7d:3f:3f:5d:cb:f0:c5:d3:da:4e:64:63:
                    e6:50:c1:82:db:06:2d:34:a3:38:23:01:9a:ea:6d:
                    f1:be:43:5b:72:dc:f7:57:04:12:fe:29:38:c7:cf:
                    fb:43:0e:20:c0:8c:89:06:5e:23:ae:55:cf:8e:2f:
                    ec:94:f7:79:3b:a2:6e:ce:3b:7e:6b:e7:ef:f6:13:
                    00:0d:c3:0d:89:a1:4c:55:e8:25:7f:ad:f6:07:01:
                    99:36:98:49:1a:db:f3:44:48:f3:7c:a0:f8:46:36:
                    7a:14:85:65:0a:c4:25:66:78:e0:fd:35:58:d6:e8:
                    94:cc:2e:7e:a9:77:a3:d0:2b:91:1a:1f:98:10:5b:
                    5f:f6:05:b7:8f:78:f8:f3:8b:94:f4:69:40:40:41:
                    46:6d:d8:10:fa:ee:38:49:ba:0c:7e:c7:89:be:ab:
                    4b:bd
                Exponent: 65537 (0x10001)
        X509v3 extensions:
            X509v3 Key Usage: 
                Digital Signature, Key Encipherment
            X509v3 Basic Constraints: 
                CA:FALSE
            Netscape Cert Type: 
                SSL Server
            Netscape Comment: 
                OpenSSL Generated Server Certificate
            X509v3 Subject Key Identifier: 
                04:65:E6:88:C0:CB:04:E5:E1:24:6B:58:44:63:80:04:E5:9E:80:DC
            X509v3 Authority Key Identifier: 
                keyid:F4:A7:C0:CC:91:46:AF:64:F3:91:F2:27:F8:C8:B2:6F:8A:87:32:73
                DirName:/C=DE/ST=Hessen/O=privacyidea/CN=CA001
                serial:FB:C8:EB:AC:83:CD:12:07

            X509v3 Extended Key Usage: 
                TLS Web Server Authentication
    Signature Algorithm: sha256WithRSAEncryption
         64:03:3a:8c:0b:1a:fd:f0:d7:50:cb:d5:49:9c:3b:aa:b6:d6:
         1c:ab:d2:6a:bb:fe:cf:4f:40:d5:8e:31:df:5d:cd:1c:f4:d8:
         c2:d7:c7:d3:aa:97:f9:8a:e1:8c:43:b0:70:9a:b1:09:8b:e0:
         fd:66:04:e2:6f:16:bc:a4:be:ff:d6:cf:3f:f9:c3:a6:13:6c:
         41:c4:4d:f3:bb:87:53:b9:9a:a6:3e:2d:fc:16:89:15:16:15:
         3e:06:e0:4a:28:7c:1a:d1:d7:5f:6b:88:2e:98:83:0d:4c:00:
         d7:55:d5:e6:a6:83:c7:95:7c:19:4a:9a:a0:58:cb:af:ac:bb:
         b9:fb:6c:e3:32:1e:0a:63:50:bc:19:1e:66:fd:85:71:a7:cd:
         c9:96:e5:a8:2b:81:24:57:41:f3:63:18:f8:09:fc:c0:1a:fe:
         00:29:d8:4b:50:f6:00:b5:47:a4:f3:7e:7c:82:33:41:50:f5:
         0a:91:f8:3d:c9:fc:5a:22:f3:e4:2d:d3:35:bf:e0:5d:71:f7:
         b4:d0:a9:27:4a:98:21:7d:20:10:64:f6:16:96:20:43:6a:4c:
         c7:f5:4f:c1:76:7e:19:ec:e9:a4:d6:4b:b6:36:8a:50:55:c7:
         ad:0d:42:ea:80:4a:7d:fa:c9:ef:5f:e5:ca:88:06:5f:95:79:
         9c:0a:2e:15
-----BEGIN CERTIFICATE-----
MIIEIjCCAwqgAwIBAgIEEAAA1zANBgkqhkiG9w0BAQsFADBEMQswCQYDVQQGEwJE
RTEPMA0GA1UECAwGSGVzc2VuMRQwEgYDVQQKDAtwcml2YWN5aWRlYTEOMAwGA1UE
AwwFQ0EwMDEwHhcNMjAwMTE3MTA0NDI2WhcNMjEwMTE2MTA0NDI2WjBQMQ8wDQYD
VQQLDAZyZWFsbTExEjAQBgNVBAMMCWNvcm5lbGl1czEpMCcGCSqGSIb3DQEJARYa
dXNlckBsb2NhbGhvc3QubG9jYWxkb21haW4wggEiMA0GCSqGSIb3DQEBAQUAA4IB
DwAwggEKAoIBAQDyw4ltMs0wUOvWj7W2WSRPA564jaCWLRmpxsfWxw6YpBoK0xSz
6DBoKdTEJv0fKTFaj2c+13mhxrmEbKNQhtILThQTR0IjjuMuAIW8LxSQgkzGE4gE
DNcmBhjGXn0/P13L8MXT2k5kY+ZQwYLbBi00ozgjAZrqbfG+Q1ty3PdXBBL+KTjH
z/tDDiDAjIkGXiOuVc+OL+yU93k7om7OO35r5+/2EwANww2JoUxV6CV/rfYHAZk2
mEka2/NESPN8oPhGNnoUhWUKxCVmeOD9NVjW6JTMLn6pd6PQK5EaH5gQW1/2BbeP
ePjzi5T0aUBAQUZt2BD67jhJugx+x4m+q0u9AgMBAAGjggEOMIIBCjALBgNVHQ8E
BAMCBaAwCQYDVR0TBAIwADARBglghkgBhvhCAQEEBAMCBkAwMwYJYIZIAYb4QgEN
BCYWJE9wZW5TU0wgR2VuZXJhdGVkIFNlcnZlciBDZXJ0aWZpY2F0ZTAdBgNVHQ4E
FgQUBGXmiMDLBOXhJGtYRGOABOWegNwwdAYDVR0jBG0wa4AU9KfAzJFGr2TzkfIn
+Miyb4qHMnOhSKRGMEQxCzAJBgNVBAYTAkRFMQ8wDQYDVQQIDAZIZXNzZW4xFDAS
BgNVBAoMC3ByaXZhY3lpZGVhMQ4wDAYDVQQDDAVDQTAwMYIJAPvI66yDzRIHMBMG
A1UdJQQMMAoGCCsGAQUFBwMBMA0GCSqGSIb3DQEBCwUAA4IBAQBkAzqMCxr98NdQ
y9VJnDuqttYcq9Jqu/7PT0DVjjHfXc0c9NjC18fTqpf5iuGMQ7BwmrEJi+D9ZgTi
bxa8pL7/1s8/+cOmE2xBxE3zu4dTuZqmPi38FokVFhU+BuBKKHwa0ddfa4gumIMN
TADXVdXmpoPHlXwZSpqgWMuvrLu5+2zjMh4KY1C8GR5m/YVxp83JluWoK4EkV0Hz
Yxj4CfzAGv4AKdhLUPYAtUek8358gjNBUPUKkfg9yfxaIvPkLdM1v+Bdcfe00Kkn
SpghfSAQZPYWliBDakzH9U/Bdn4Z7Omk1ku2NopQVcetDULqgEp9+snvX+XKiAZf
lXmcCi4V
-----END CERTIFICATE-----
